; Listing generated by Microsoft (R) Optimizing Compiler Version 19.38.33135.0 

include listing.inc

INCLUDELIB MSVCRTD
INCLUDELIB OLDNAMES

msvcjmc	SEGMENT
__AFB787FD_stdafx@h DB 01H
__68B622B8_function3@cpp DB 01H
msvcjmc	ENDS
PUBLIC	?daysUntilBirthday@@YAHHHHHH@Z			; daysUntilBirthday
PUBLIC	__JustMyCode_Default
EXTRN	?dayOfYear@@YAHHHH@Z:PROC			; dayOfYear
EXTRN	_RTC_InitBase:PROC
EXTRN	_RTC_Shutdown:PROC
EXTRN	__CheckForDebuggerJustMyCode:PROC
;	COMDAT pdata
pdata	SEGMENT
$pdata$?daysUntilBirthday@@YAHHHHHH@Z DD imagerel $LN4
	DD	imagerel $LN4+137
	DD	imagerel $unwind$?daysUntilBirthday@@YAHHHHHH@Z
pdata	ENDS
;	COMDAT rtc$TMZ
rtc$TMZ	SEGMENT
_RTC_Shutdown.rtc$TMZ DQ FLAT:_RTC_Shutdown
rtc$TMZ	ENDS
;	COMDAT rtc$IMZ
rtc$IMZ	SEGMENT
_RTC_InitBase.rtc$IMZ DQ FLAT:_RTC_InitBase
rtc$IMZ	ENDS
;	COMDAT xdata
xdata	SEGMENT
$unwind$?daysUntilBirthday@@YAHHHHHH@Z DD 025052001H
	DD	011b2320H
	DD	070140025H
	DD	05013H
xdata	ENDS
; Function compile flags: /Odt
;	COMDAT __JustMyCode_Default
_TEXT	SEGMENT
__JustMyCode_Default PROC				; COMDAT
  00000	c2 00 00	 ret	 0
__JustMyCode_Default ENDP
_TEXT	ENDS
; Function compile flags: /Odtp /RTCsu /ZI
; File C:\Users\admin\Documents\уник\кпо\лаба 1\kpo_lab01_files\kpo_lab01_files\function3.cpp
;	COMDAT ?daysUntilBirthday@@YAHHHHHH@Z
_TEXT	SEGMENT
currentDayOfYear$ = 4
birthdayDayOfYear$ = 36
currentDay$ = 288
currentMonth$ = 296
currentYear$ = 304
birthDay$ = 312
birthMonth$ = 320
?daysUntilBirthday@@YAHHHHHH@Z PROC			; daysUntilBirthday, COMDAT

; 4    : int daysUntilBirthday(int currentDay, int currentMonth, int currentYear, int birthDay, int birthMonth) {

$LN4:
  00000	44 89 4c 24 20	 mov	 DWORD PTR [rsp+32], r9d
  00005	44 89 44 24 18	 mov	 DWORD PTR [rsp+24], r8d
  0000a	89 54 24 10	 mov	 DWORD PTR [rsp+16], edx
  0000e	89 4c 24 08	 mov	 DWORD PTR [rsp+8], ecx
  00012	55		 push	 rbp
  00013	57		 push	 rdi
  00014	48 81 ec 28 01
	00 00		 sub	 rsp, 296		; 00000128H
  0001b	48 8d 6c 24 20	 lea	 rbp, QWORD PTR [rsp+32]
  00020	48 8d 0d 00 00
	00 00		 lea	 rcx, OFFSET FLAT:__68B622B8_function3@cpp
  00027	e8 00 00 00 00	 call	 __CheckForDebuggerJustMyCode

; 5    : 
; 6    :     int currentDayOfYear = dayOfYear(currentDay, currentMonth, currentYear);

  0002c	44 8b 85 30 01
	00 00		 mov	 r8d, DWORD PTR currentYear$[rbp]
  00033	8b 95 28 01 00
	00		 mov	 edx, DWORD PTR currentMonth$[rbp]
  00039	8b 8d 20 01 00
	00		 mov	 ecx, DWORD PTR currentDay$[rbp]
  0003f	e8 00 00 00 00	 call	 ?dayOfYear@@YAHHHH@Z	; dayOfYear
  00044	89 45 04	 mov	 DWORD PTR currentDayOfYear$[rbp], eax

; 7    :     int birthdayDayOfYear = dayOfYear(birthDay, birthMonth, currentYear);

  00047	44 8b 85 30 01
	00 00		 mov	 r8d, DWORD PTR currentYear$[rbp]
  0004e	8b 95 40 01 00
	00		 mov	 edx, DWORD PTR birthMonth$[rbp]
  00054	8b 8d 38 01 00
	00		 mov	 ecx, DWORD PTR birthDay$[rbp]
  0005a	e8 00 00 00 00	 call	 ?dayOfYear@@YAHHHH@Z	; dayOfYear
  0005f	89 45 24	 mov	 DWORD PTR birthdayDayOfYear$[rbp], eax

; 8    : 
; 9    :     if (birthdayDayOfYear <= currentDayOfYear) {

  00062	8b 45 04	 mov	 eax, DWORD PTR currentDayOfYear$[rbp]
  00065	39 45 24	 cmp	 DWORD PTR birthdayDayOfYear$[rbp], eax
  00068	7f 0b		 jg	 SHORT $LN2@daysUntilB

; 10   :         birthdayDayOfYear += 365; // Если день рождения уже прошел в текущем году, добавляем 365 дней

  0006a	8b 45 24	 mov	 eax, DWORD PTR birthdayDayOfYear$[rbp]
  0006d	05 6d 01 00 00	 add	 eax, 365		; 0000016dH
  00072	89 45 24	 mov	 DWORD PTR birthdayDayOfYear$[rbp], eax
$LN2@daysUntilB:

; 11   :     }
; 12   : 
; 13   :     return birthdayDayOfYear - currentDayOfYear;

  00075	8b 45 04	 mov	 eax, DWORD PTR currentDayOfYear$[rbp]
  00078	8b 4d 24	 mov	 ecx, DWORD PTR birthdayDayOfYear$[rbp]
  0007b	2b c8		 sub	 ecx, eax
  0007d	8b c1		 mov	 eax, ecx

; 14   : }

  0007f	48 8d a5 08 01
	00 00		 lea	 rsp, QWORD PTR [rbp+264]
  00086	5f		 pop	 rdi
  00087	5d		 pop	 rbp
  00088	c3		 ret	 0
?daysUntilBirthday@@YAHHHHHH@Z ENDP			; daysUntilBirthday
_TEXT	ENDS
END
