; Listing generated by Microsoft (R) Optimizing Compiler Version 19.37.32824.0 

include listing.inc

INCLUDELIB MSVCRTD
INCLUDELIB OLDNAMES

msvcjmc	SEGMENT
__2972590E_concurrencysal@h DB 01H
__196CC136_sal@h DB 01H
__C395F66A_vadefs@h DB 01H
__D5C25611_vcruntime@h DB 01H
__311F130C_xkeycheck@h DB 01H
__AEBEEEE9_yvals_core@h DB 01H
__05EEB633_limits@h DB 01H
__7CE37BCF_climits DB 01H
__1B0272D9_corecrt@h DB 01H
__D5F74309_vcruntime_new@h DB 01H
__ED298667_vcruntime_new_debug@h DB 01H
__935DC21B_crtdbg@h DB 01H
__B40C025A_crtdefs@h DB 01H
__97CA0262_use_ansi@h DB 01H
__4E4CEF82_yvals@h DB 01H
__BB16330F_corecrt_math@h DB 01H
__3BF2A406_math@h DB 01H
__45DED006_corecrt_malloc@h DB 01H
__13F5961F_stddef@h DB 01H
__FD6DBD68_corecrt_search@h DB 01H
__E2E33A61_corecrt_wstdlib@h DB 01H
__6E5ACABA_stdlib@h DB 01H
__F80C593D_cstdlib DB 01H
__6CC4302B_xtr1common DB 01H
__7178C802_intrin0@inl@h DB 01H
__AD21BB51_intrin0@h DB 01H
__7BD6CF81_cmath DB 01H
__44420885_corecrt_stdio_config@h DB 01H
__AB601D8D_corecrt_wstdio@h DB 01H
__C1EC35D3_stdio@h DB 01H
__FAE305CF_cstdio DB 01H
__61CC25A1_errno@h DB 01H
__4BC88476_vcruntime_string@h DB 01H
__E4C945B4_corecrt_memcpy_s@h DB 01H
__8EAFF484_corecrt_memory@h DB 01H
__6490AEC5_corecrt_wstring@h DB 01H
__E8295E1E_string@h DB 01H
__B49EF1DD_cstring DB 01H
__EF1F6BBA_corecrt_wconio@h DB 01H
__74484FB3_corecrt_wctype@h DB 01H
__3D1D430C_corecrt_wdirect@h DB 01H
__8ECB7138_corecrt_share@h DB 01H
__DB7FEBA6_corecrt_wio@h DB 01H
__9A9F0068_corecrt_wprocess@h DB 01H
__369A9BC3_corecrt_wtime@h DB 01H
__CE789B9D_types@h DB 01H
__9901C817_stat@h DB 01H
__3FCAD62E_wchar@h DB 01H
__6068D39C_cwchar DB 01H
__23A856AA_iosfwd DB 01H
__5DC78390_cstddef DB 01H
__33B42F3D_initializer_list DB 01H
__BB98980C_stdint@h DB 01H
__4552B840_cstdint DB 01H
__7FB6D5C7_type_traits DB 01H
__CF01DCB6_utility DB 01H
__12DC71E1___msvc_iter_core@hpp DB 01H
__D740E0F1_xutility DB 01H
__C6EC57B1_iterator DB 01H
__F7972D0B_share@h DB 01H
__3D410F40___msvc_system_error_abi@hpp DB 01H
__67C27134_cerrno DB 01H
__FA77ED4C_malloc@h DB 01H
__89766DA4_corecrt_terminate@h DB 01H
__27A4BD10_eh@h DB 01H
__E5C78335_vcruntime_exception@h DB 01H
__7C536CCC_exception DB 01H
__B9985323_float@h DB 01H
__89A7CE48_cfloat DB 01H
__98438E05_isa_availability@h DB 01H
__EF41832C_limits DB 01H
__0DB0C2E5_new DB 01H
__765FE01A_xatomic@h DB 01H
__A594BF75_xmemory DB 01H
__DFFCB714___msvc_sanitizer_annotate_container@hpp DB 01H
__D14739E9_xstring DB 01H
__F51D5691_stdexcept DB 01H
__ED2630B9_xcall_once@h DB 01H
__E6D9FA8D_xerrc@h DB 01H
__0A9237D2_time@h DB 01H
__BD655389_ctime DB 01H
__618403B0_xtimec@h DB 01H
__F68435D1_xthreads@h DB 01H
__8474DFEE_atomic DB 01H
__527B2299_system_error DB 01H
__0632977E_vcruntime_typeinfo@h DB 01H
__A79F13E8_typeinfo DB 01H
__53EF8FA2_memory DB 01H
__7FAAD8AD_xfacet DB 01H
__53FF2065___msvc_xlocinfo_types@hpp DB 01H
__1EC467ED_ctype@h DB 01H
__F528E268_cctype DB 01H
__791C33B7_locale@h DB 01H
__6BA085EC_clocale DB 01H
__B816F020_xlocinfo DB 01H
__0E794DD8_xlocale DB 01H
__81F38733_xiosbase DB 01H
__F7BDEE2D_streambuf DB 01H
__90FE2BCF_xlocnum DB 01H
__F57DF8F3_ios DB 01H
__1D69971C_ostream DB 01H
__7EB9A226_istream DB 01H
__B5399AEE_iostream DB 01H
__AFB787FD_stdafx@h DB 01H
__A1A1C1EF_stdafx@cpp DB 01H
msvcjmc	ENDS
PUBLIC	?__empty_global_delete@@YAXPEAX@Z		; __empty_global_delete
PUBLIC	?__empty_global_delete@@YAXPEAX_K@Z		; __empty_global_delete
PUBLIC	?leapYear@@YA_NH@Z				; leapYear
PUBLIC	?dayOfYear@@YAHHHH@Z				; dayOfYear
PUBLIC	?daysUntilBirthday@@YAHHHHHH@Z			; daysUntilBirthday
PUBLIC	__JustMyCode_Default
EXTRN	_RTC_CheckStackVars:PROC
EXTRN	_RTC_InitBase:PROC
EXTRN	_RTC_Shutdown:PROC
EXTRN	__CheckForDebuggerJustMyCode:PROC
;	COMDAT pdata
pdata	SEGMENT
$pdata$?__empty_global_delete@@YAXPEAX@Z DD imagerel $LN3
	DD	imagerel $LN3+41
	DD	imagerel $unwind$?__empty_global_delete@@YAXPEAX@Z
pdata	ENDS
;	COMDAT pdata
pdata	SEGMENT
$pdata$?__empty_global_delete@@YAXPEAX_K@Z DD imagerel $LN3
	DD	imagerel $LN3+46
	DD	imagerel $unwind$?__empty_global_delete@@YAXPEAX_K@Z
pdata	ENDS
;	COMDAT pdata
pdata	SEGMENT
$pdata$?leapYear@@YA_NH@Z DD imagerel $LN6
	DD	imagerel $LN6+130
	DD	imagerel $unwind$?leapYear@@YA_NH@Z
pdata	ENDS
;	COMDAT pdata
pdata	SEGMENT
$pdata$?dayOfYear@@YAHHHH@Z DD imagerel $LN7
	DD	imagerel $LN7+279
	DD	imagerel $unwind$?dayOfYear@@YAHHHH@Z
pdata	ENDS
;	COMDAT pdata
pdata	SEGMENT
$pdata$?daysUntilBirthday@@YAHHHHHH@Z DD imagerel $LN4
	DD	imagerel $LN4+137
	DD	imagerel $unwind$?daysUntilBirthday@@YAHHHHHH@Z
pdata	ENDS
;	COMDAT rtc$TMZ
rtc$TMZ	SEGMENT
_RTC_Shutdown.rtc$TMZ DQ FLAT:_RTC_Shutdown
rtc$TMZ	ENDS
;	COMDAT rtc$IMZ
rtc$IMZ	SEGMENT
_RTC_InitBase.rtc$IMZ DQ FLAT:_RTC_InitBase
rtc$IMZ	ENDS
;	COMDAT xdata
xdata	SEGMENT
$unwind$?daysUntilBirthday@@YAHHHHHH@Z DD 025052001H
	DD	011b2320H
	DD	070140025H
	DD	05013H
xdata	ENDS
;	COMDAT xdata
xdata	SEGMENT
$unwind$?dayOfYear@@YAHHHH@Z DD 025053301H
	DD	0116231bH
	DD	0700f002fH
	DD	0500eH
xdata	ENDS
;	COMDAT CONST
CONST	SEGMENT
?dayOfYear@@YAHHHH@Z$rtcName$0 DB 064H			; dayOfYear
	DB	061H
	DB	079H
	DB	073H
	DB	049H
	DB	06eH
	DB	04dH
	DB	06fH
	DB	06eH
	DB	074H
	DB	068H
	DB	00H
	ORG $+4
?dayOfYear@@YAHHHH@Z$rtcVarDesc DD 028H			; dayOfYear
	DD	034H
	DQ	FLAT:?dayOfYear@@YAHHHH@Z$rtcName$0
	ORG $+48
?dayOfYear@@YAHHHH@Z$rtcFrameData DD 01H		; dayOfYear
	DD	00H
	DQ	FLAT:?dayOfYear@@YAHHHH@Z$rtcVarDesc
CONST	ENDS
;	COMDAT xdata
xdata	SEGMENT
$unwind$?leapYear@@YA_NH@Z DD 025051201H
	DD	010d2312H
	DD	07006001fH
	DD	05005H
xdata	ENDS
;	COMDAT xdata
xdata	SEGMENT
$unwind$?__empty_global_delete@@YAXPEAX_K@Z DD 025051801H
	DD	01132318H
	DD	0700c001dH
	DD	0500bH
xdata	ENDS
;	COMDAT xdata
xdata	SEGMENT
$unwind$?__empty_global_delete@@YAXPEAX@Z DD 025051301H
	DD	010e2313H
	DD	07007001dH
	DD	05006H
xdata	ENDS
; Function compile flags: /Odt
;	COMDAT __JustMyCode_Default
_TEXT	SEGMENT
__JustMyCode_Default PROC				; COMDAT
  00000	c2 00 00	 ret	 0
__JustMyCode_Default ENDP
_TEXT	ENDS
; Function compile flags: /Odtp /RTCsu /ZI
; File C:\Users\admin\Documents\уник\кпо\лаба 1\kpo_lab01_files\kpo_lab01_files\stdafx.cpp
;	COMDAT ?daysUntilBirthday@@YAHHHHHH@Z
_TEXT	SEGMENT
currentDayOfYear$ = 4
birthdayDayOfYear$ = 36
currentDay$ = 288
currentMonth$ = 296
currentYear$ = 304
birthDay$ = 312
birthMonth$ = 320
?daysUntilBirthday@@YAHHHHHH@Z PROC			; daysUntilBirthday, COMDAT

; 26   : int daysUntilBirthday(int currentDay, int currentMonth, int currentYear, int birthDay, int birthMonth) {

$LN4:
  00000	44 89 4c 24 20	 mov	 DWORD PTR [rsp+32], r9d
  00005	44 89 44 24 18	 mov	 DWORD PTR [rsp+24], r8d
  0000a	89 54 24 10	 mov	 DWORD PTR [rsp+16], edx
  0000e	89 4c 24 08	 mov	 DWORD PTR [rsp+8], ecx
  00012	55		 push	 rbp
  00013	57		 push	 rdi
  00014	48 81 ec 28 01
	00 00		 sub	 rsp, 296		; 00000128H
  0001b	48 8d 6c 24 20	 lea	 rbp, QWORD PTR [rsp+32]
  00020	48 8d 0d 00 00
	00 00		 lea	 rcx, OFFSET FLAT:__A1A1C1EF_stdafx@cpp
  00027	e8 00 00 00 00	 call	 __CheckForDebuggerJustMyCode

; 27   : 
; 28   :     int currentDayOfYear = dayOfYear(currentDay, currentMonth, currentYear);

  0002c	44 8b 85 30 01
	00 00		 mov	 r8d, DWORD PTR currentYear$[rbp]
  00033	8b 95 28 01 00
	00		 mov	 edx, DWORD PTR currentMonth$[rbp]
  00039	8b 8d 20 01 00
	00		 mov	 ecx, DWORD PTR currentDay$[rbp]
  0003f	e8 00 00 00 00	 call	 ?dayOfYear@@YAHHHH@Z	; dayOfYear
  00044	89 45 04	 mov	 DWORD PTR currentDayOfYear$[rbp], eax

; 29   :     int birthdayDayOfYear = dayOfYear(birthDay, birthMonth, currentYear);

  00047	44 8b 85 30 01
	00 00		 mov	 r8d, DWORD PTR currentYear$[rbp]
  0004e	8b 95 40 01 00
	00		 mov	 edx, DWORD PTR birthMonth$[rbp]
  00054	8b 8d 38 01 00
	00		 mov	 ecx, DWORD PTR birthDay$[rbp]
  0005a	e8 00 00 00 00	 call	 ?dayOfYear@@YAHHHH@Z	; dayOfYear
  0005f	89 45 24	 mov	 DWORD PTR birthdayDayOfYear$[rbp], eax

; 30   : 
; 31   :     if (birthdayDayOfYear <= currentDayOfYear) {

  00062	8b 45 04	 mov	 eax, DWORD PTR currentDayOfYear$[rbp]
  00065	39 45 24	 cmp	 DWORD PTR birthdayDayOfYear$[rbp], eax
  00068	7f 0b		 jg	 SHORT $LN2@daysUntilB

; 32   :         birthdayDayOfYear += 365; // Если день рождения уже прошел в текущем году, добавляем 365 дней

  0006a	8b 45 24	 mov	 eax, DWORD PTR birthdayDayOfYear$[rbp]
  0006d	05 6d 01 00 00	 add	 eax, 365		; 0000016dH
  00072	89 45 24	 mov	 DWORD PTR birthdayDayOfYear$[rbp], eax
$LN2@daysUntilB:

; 33   :     }
; 34   : 
; 35   :     return birthdayDayOfYear - currentDayOfYear;

  00075	8b 45 04	 mov	 eax, DWORD PTR currentDayOfYear$[rbp]
  00078	8b 4d 24	 mov	 ecx, DWORD PTR birthdayDayOfYear$[rbp]
  0007b	2b c8		 sub	 ecx, eax
  0007d	8b c1		 mov	 eax, ecx

; 36   : }

  0007f	48 8d a5 08 01
	00 00		 lea	 rsp, QWORD PTR [rbp+264]
  00086	5f		 pop	 rdi
  00087	5d		 pop	 rbp
  00088	c3		 ret	 0
?daysUntilBirthday@@YAHHHHHH@Z ENDP			; daysUntilBirthday
_TEXT	ENDS
; Function compile flags: /Odtp /RTCsu /ZI
; File C:\Users\admin\Documents\уник\кпо\лаба 1\kpo_lab01_files\kpo_lab01_files\stdafx.cpp
;	COMDAT ?dayOfYear@@YAHHHH@Z
_TEXT	SEGMENT
daysInMonth$ = 8
result$ = 84
i$4 = 116
day$ = 368
month$ = 376
year$ = 384
?dayOfYear@@YAHHHH@Z PROC				; dayOfYear, COMDAT

; 11   : int dayOfYear(int day, int month, int year) {

$LN7:
  00000	44 89 44 24 18	 mov	 DWORD PTR [rsp+24], r8d
  00005	89 54 24 10	 mov	 DWORD PTR [rsp+16], edx
  00009	89 4c 24 08	 mov	 DWORD PTR [rsp+8], ecx
  0000d	55		 push	 rbp
  0000e	57		 push	 rdi
  0000f	48 81 ec 78 01
	00 00		 sub	 rsp, 376		; 00000178H
  00016	48 8d 6c 24 20	 lea	 rbp, QWORD PTR [rsp+32]
  0001b	48 8d 7c 24 20	 lea	 rdi, QWORD PTR [rsp+32]
  00020	b9 26 00 00 00	 mov	 ecx, 38			; 00000026H
  00025	b8 cc cc cc cc	 mov	 eax, -858993460		; ccccccccH
  0002a	f3 ab		 rep stosd
  0002c	8b 8c 24 98 01
	00 00		 mov	 ecx, DWORD PTR [rsp+408]
  00033	48 8d 0d 00 00
	00 00		 lea	 rcx, OFFSET FLAT:__A1A1C1EF_stdafx@cpp
  0003a	e8 00 00 00 00	 call	 __CheckForDebuggerJustMyCode

; 12   :     const int daysInMonth[] = { 0, 31, 28, 31, 30, 31, 30, 31, 31, 30, 31, 30, 31 };

  0003f	c7 45 08 00 00
	00 00		 mov	 DWORD PTR daysInMonth$[rbp], 0
  00046	c7 45 0c 1f 00
	00 00		 mov	 DWORD PTR daysInMonth$[rbp+4], 31
  0004d	c7 45 10 1c 00
	00 00		 mov	 DWORD PTR daysInMonth$[rbp+8], 28
  00054	c7 45 14 1f 00
	00 00		 mov	 DWORD PTR daysInMonth$[rbp+12], 31
  0005b	c7 45 18 1e 00
	00 00		 mov	 DWORD PTR daysInMonth$[rbp+16], 30
  00062	c7 45 1c 1f 00
	00 00		 mov	 DWORD PTR daysInMonth$[rbp+20], 31
  00069	c7 45 20 1e 00
	00 00		 mov	 DWORD PTR daysInMonth$[rbp+24], 30
  00070	c7 45 24 1f 00
	00 00		 mov	 DWORD PTR daysInMonth$[rbp+28], 31
  00077	c7 45 28 1f 00
	00 00		 mov	 DWORD PTR daysInMonth$[rbp+32], 31
  0007e	c7 45 2c 1e 00
	00 00		 mov	 DWORD PTR daysInMonth$[rbp+36], 30
  00085	c7 45 30 1f 00
	00 00		 mov	 DWORD PTR daysInMonth$[rbp+40], 31
  0008c	c7 45 34 1e 00
	00 00		 mov	 DWORD PTR daysInMonth$[rbp+44], 30
  00093	c7 45 38 1f 00
	00 00		 mov	 DWORD PTR daysInMonth$[rbp+48], 31

; 13   :     int result = day;

  0009a	8b 85 70 01 00
	00		 mov	 eax, DWORD PTR day$[rbp]
  000a0	89 45 54	 mov	 DWORD PTR result$[rbp], eax

; 14   : 
; 15   :     for (int i = 1; i < month; ++i) {

  000a3	c7 45 74 01 00
	00 00		 mov	 DWORD PTR i$4[rbp], 1
  000aa	eb 08		 jmp	 SHORT $LN4@dayOfYear
$LN2@dayOfYear:
  000ac	8b 45 74	 mov	 eax, DWORD PTR i$4[rbp]
  000af	ff c0		 inc	 eax
  000b1	89 45 74	 mov	 DWORD PTR i$4[rbp], eax
$LN4@dayOfYear:
  000b4	8b 85 78 01 00
	00		 mov	 eax, DWORD PTR month$[rbp]
  000ba	39 45 74	 cmp	 DWORD PTR i$4[rbp], eax
  000bd	7d 14		 jge	 SHORT $LN3@dayOfYear

; 16   :         result += daysInMonth[i];

  000bf	48 63 45 74	 movsxd	 rax, DWORD PTR i$4[rbp]
  000c3	8b 44 85 08	 mov	 eax, DWORD PTR daysInMonth$[rbp+rax*4]
  000c7	8b 4d 54	 mov	 ecx, DWORD PTR result$[rbp]
  000ca	03 c8		 add	 ecx, eax
  000cc	8b c1		 mov	 eax, ecx
  000ce	89 45 54	 mov	 DWORD PTR result$[rbp], eax

; 17   :     }

  000d1	eb d9		 jmp	 SHORT $LN2@dayOfYear
$LN3@dayOfYear:

; 18   : 
; 19   :     if (month > 2 && leapYear(year)) {

  000d3	83 bd 78 01 00
	00 02		 cmp	 DWORD PTR month$[rbp], 2
  000da	7e 1a		 jle	 SHORT $LN5@dayOfYear
  000dc	8b 8d 80 01 00
	00		 mov	 ecx, DWORD PTR year$[rbp]
  000e2	e8 00 00 00 00	 call	 ?leapYear@@YA_NH@Z	; leapYear
  000e7	0f b6 c0	 movzx	 eax, al
  000ea	85 c0		 test	 eax, eax
  000ec	74 08		 je	 SHORT $LN5@dayOfYear

; 20   :         result += 1;

  000ee	8b 45 54	 mov	 eax, DWORD PTR result$[rbp]
  000f1	ff c0		 inc	 eax
  000f3	89 45 54	 mov	 DWORD PTR result$[rbp], eax
$LN5@dayOfYear:

; 21   :     }
; 22   : 
; 23   :     return result;

  000f6	8b 45 54	 mov	 eax, DWORD PTR result$[rbp]

; 24   : }

  000f9	8b f8		 mov	 edi, eax
  000fb	48 8d 4d e0	 lea	 rcx, QWORD PTR [rbp-32]
  000ff	48 8d 15 00 00
	00 00		 lea	 rdx, OFFSET FLAT:?dayOfYear@@YAHHHH@Z$rtcFrameData
  00106	e8 00 00 00 00	 call	 _RTC_CheckStackVars
  0010b	8b c7		 mov	 eax, edi
  0010d	48 8d a5 58 01
	00 00		 lea	 rsp, QWORD PTR [rbp+344]
  00114	5f		 pop	 rdi
  00115	5d		 pop	 rbp
  00116	c3		 ret	 0
?dayOfYear@@YAHHHH@Z ENDP				; dayOfYear
_TEXT	ENDS
; Function compile flags: /Odtp /RTCsu /ZI
; File C:\Users\admin\Documents\уник\кпо\лаба 1\kpo_lab01_files\kpo_lab01_files\stdafx.cpp
;	COMDAT ?leapYear@@YA_NH@Z
_TEXT	SEGMENT
tv70 = 192
year$ = 240
?leapYear@@YA_NH@Z PROC					; leapYear, COMDAT

; 6    : bool leapYear(int year) {

$LN6:
  00000	89 4c 24 08	 mov	 DWORD PTR [rsp+8], ecx
  00004	55		 push	 rbp
  00005	57		 push	 rdi
  00006	48 81 ec f8 00
	00 00		 sub	 rsp, 248		; 000000f8H
  0000d	48 8d 6c 24 20	 lea	 rbp, QWORD PTR [rsp+32]
  00012	48 8d 0d 00 00
	00 00		 lea	 rcx, OFFSET FLAT:__A1A1C1EF_stdafx@cpp
  00019	e8 00 00 00 00	 call	 __CheckForDebuggerJustMyCode

; 7    :     return (year % 4 == 0 && year % 100 != 0) || (year % 400 == 0);

  0001e	8b 85 f0 00 00
	00		 mov	 eax, DWORD PTR year$[rbp]
  00024	99		 cdq
  00025	83 e2 03	 and	 edx, 3
  00028	03 c2		 add	 eax, edx
  0002a	83 e0 03	 and	 eax, 3
  0002d	2b c2		 sub	 eax, edx
  0002f	85 c0		 test	 eax, eax
  00031	75 14		 jne	 SHORT $LN3@leapYear
  00033	8b 85 f0 00 00
	00		 mov	 eax, DWORD PTR year$[rbp]
  00039	99		 cdq
  0003a	b9 64 00 00 00	 mov	 ecx, 100		; 00000064H
  0003f	f7 f9		 idiv	 ecx
  00041	8b c2		 mov	 eax, edx
  00043	85 c0		 test	 eax, eax
  00045	75 20		 jne	 SHORT $LN4@leapYear
$LN3@leapYear:
  00047	8b 85 f0 00 00
	00		 mov	 eax, DWORD PTR year$[rbp]
  0004d	99		 cdq
  0004e	b9 90 01 00 00	 mov	 ecx, 400		; 00000190H
  00053	f7 f9		 idiv	 ecx
  00055	8b c2		 mov	 eax, edx
  00057	85 c0		 test	 eax, eax
  00059	74 0c		 je	 SHORT $LN4@leapYear
  0005b	c7 85 c0 00 00
	00 00 00 00 00	 mov	 DWORD PTR tv70[rbp], 0
  00065	eb 0a		 jmp	 SHORT $LN5@leapYear
$LN4@leapYear:
  00067	c7 85 c0 00 00
	00 01 00 00 00	 mov	 DWORD PTR tv70[rbp], 1
$LN5@leapYear:
  00071	0f b6 85 c0 00
	00 00		 movzx	 eax, BYTE PTR tv70[rbp]

; 8    : }

  00078	48 8d a5 d8 00
	00 00		 lea	 rsp, QWORD PTR [rbp+216]
  0007f	5f		 pop	 rdi
  00080	5d		 pop	 rbp
  00081	c3		 ret	 0
?leapYear@@YA_NH@Z ENDP					; leapYear
_TEXT	ENDS
; Function compile flags: /Odtp /RTCsu /ZI
; File C:\Users\admin\Documents\уник\кпо\лаба 1\kpo_lab01_files\kpo_lab01_files\stdafx.cpp
;	COMDAT ?__empty_global_delete@@YAXPEAX_K@Z
_TEXT	SEGMENT
__formal$ = 224
__formal$ = 232
?__empty_global_delete@@YAXPEAX_K@Z PROC		; __empty_global_delete, COMDAT

$LN3:
  00000	48 89 54 24 10	 mov	 QWORD PTR [rsp+16], rdx
  00005	48 89 4c 24 08	 mov	 QWORD PTR [rsp+8], rcx
  0000a	55		 push	 rbp
  0000b	57		 push	 rdi
  0000c	48 81 ec e8 00
	00 00		 sub	 rsp, 232		; 000000e8H
  00013	48 8d 6c 24 20	 lea	 rbp, QWORD PTR [rsp+32]
  00018	48 8d 0d 00 00
	00 00		 lea	 rcx, OFFSET FLAT:__A1A1C1EF_stdafx@cpp
  0001f	e8 00 00 00 00	 call	 __CheckForDebuggerJustMyCode
  00024	48 8d a5 c8 00
	00 00		 lea	 rsp, QWORD PTR [rbp+200]
  0002b	5f		 pop	 rdi
  0002c	5d		 pop	 rbp
  0002d	c3		 ret	 0
?__empty_global_delete@@YAXPEAX_K@Z ENDP		; __empty_global_delete
_TEXT	ENDS
; Function compile flags: /Odtp /RTCsu /ZI
; File C:\Users\admin\Documents\уник\кпо\лаба 1\kpo_lab01_files\kpo_lab01_files\stdafx.cpp
;	COMDAT ?__empty_global_delete@@YAXPEAX@Z
_TEXT	SEGMENT
__formal$ = 224
?__empty_global_delete@@YAXPEAX@Z PROC			; __empty_global_delete, COMDAT

$LN3:
  00000	48 89 4c 24 08	 mov	 QWORD PTR [rsp+8], rcx
  00005	55		 push	 rbp
  00006	57		 push	 rdi
  00007	48 81 ec e8 00
	00 00		 sub	 rsp, 232		; 000000e8H
  0000e	48 8d 6c 24 20	 lea	 rbp, QWORD PTR [rsp+32]
  00013	48 8d 0d 00 00
	00 00		 lea	 rcx, OFFSET FLAT:__A1A1C1EF_stdafx@cpp
  0001a	e8 00 00 00 00	 call	 __CheckForDebuggerJustMyCode
  0001f	48 8d a5 c8 00
	00 00		 lea	 rsp, QWORD PTR [rbp+200]
  00026	5f		 pop	 rdi
  00027	5d		 pop	 rbp
  00028	c3		 ret	 0
?__empty_global_delete@@YAXPEAX@Z ENDP			; __empty_global_delete
_TEXT	ENDS
END
